target datalayout = "e-m:e-p270:32:32-p271:32:32-p272:64:64-i64:64-i128:128-f80:128-n8:16:32:64-S128"
target triple = "x86_64-pc-linux-gnu"

%"class.arrow::Status" = type { ptr }
%"class.arrow_vendored_private::flatbuffers::Table" = type { [1 x i8] }

; Function Attrs: mustprogress nounwind uwtable
define linkonce_odr noundef i32 @_ZN22arrow_vendored_private11flatbuffers12EndianScalarIiEET_S2_(i32 noundef %0) #0 comdat {
  %2 = alloca i32, align 4
  store i32 %0, ptr %2, align 4, !tbaa !31
  %3 = load i32, ptr %2, align 4, !tbaa !31
  ret i32 %3
}

; Function Attrs: mustprogress nounwind uwtable
define linkonce_odr noundef zeroext i16 @_ZN22arrow_vendored_private11flatbuffers12EndianScalarItEET_S2_(i16 noundef zeroext %0) #0 comdat {
  %2 = alloca i16, align 2
  store i16 %0, ptr %2, align 2, !tbaa !401
  %3 = load i16, ptr %2, align 2, !tbaa !401
  ret i16 %3
}

; Function Attrs: mustprogress uwtable
define linkonce_odr noundef i32 @_ZN22arrow_vendored_private11flatbuffers10ReadScalarIiEET_PKv(ptr noundef %0) #1 comdat {
  %2 = alloca ptr, align 8
  store ptr %0, ptr %2, align 8, !tbaa !17
  %3 = load ptr, ptr %2, align 8, !tbaa !17
  %4 = load i32, ptr %3, align 4, !tbaa !31
  %5 = call noundef i32 @_ZN22arrow_vendored_private11flatbuffers12EndianScalarIiEET_S2_(i32 noundef %4)
  ret i32 %5
}

; Function Attrs: mustprogress nounwind uwtable
define linkonce_odr noundef i32 @_ZN22arrow_vendored_private11flatbuffers12EndianScalarIjEET_S2_(i32 noundef %0) #0 comdat {
  %2 = alloca i32, align 4
  store i32 %0, ptr %2, align 4, !tbaa !31
  %3 = load i32, ptr %2, align 4, !tbaa !31
  ret i32 %3
}

; Function Attrs: mustprogress uwtable
define linkonce_odr noundef zeroext i16 @_ZN22arrow_vendored_private11flatbuffers10ReadScalarItEET_PKv(ptr noundef %0) #1 comdat {
  %2 = alloca ptr, align 8
  store ptr %0, ptr %2, align 8, !tbaa !17
  %3 = load ptr, ptr %2, align 8, !tbaa !17
  %4 = load i16, ptr %3, align 2, !tbaa !401
  %5 = call noundef zeroext i16 @_ZN22arrow_vendored_private11flatbuffers12EndianScalarItEET_S2_(i16 noundef zeroext %4)
  ret i16 %5
}

; Function Attrs: mustprogress uwtable
define linkonce_odr noundef ptr @_ZNK22arrow_vendored_private11flatbuffers5Table9GetVTableEv(ptr noundef nonnull align 1 dereferenceable(1) %0) #1 comdat align 2 {
  %2 = alloca ptr, align 8
  store ptr %0, ptr %2, align 8, !tbaa !399
  %3 = load ptr, ptr %2, align 8
  %4 = getelementptr inbounds nuw %"class.arrow_vendored_private::flatbuffers::Table", ptr %3, i32 0, i32 0
  %5 = getelementptr inbounds [1 x i8], ptr %4, i64 0, i64 0
  %6 = getelementptr inbounds nuw %"class.arrow_vendored_private::flatbuffers::Table", ptr %3, i32 0, i32 0
  %7 = getelementptr inbounds [1 x i8], ptr %6, i64 0, i64 0
  %8 = call noundef i32 @_ZN22arrow_vendored_private11flatbuffers10ReadScalarIiEET_PKv(ptr noundef %7)
  %9 = sext i32 %8 to i64
  %10 = sub i64 0, %9
  %11 = getelementptr inbounds i8, ptr %5, i64 %10
  ret ptr %11
}

; Function Attrs: mustprogress uwtable
define linkonce_odr noundef i32 @_ZN22arrow_vendored_private11flatbuffers10ReadScalarIjEET_PKv(ptr noundef %0) #1 comdat {
  %2 = alloca ptr, align 8
  store ptr %0, ptr %2, align 8, !tbaa !17
  %3 = load ptr, ptr %2, align 8, !tbaa !17
  %4 = load i32, ptr %3, align 4, !tbaa !31
  %5 = call noundef i32 @_ZN22arrow_vendored_private11flatbuffers12EndianScalarIjEET_S2_(i32 noundef %4)
  ret i32 %5
}

; Function Attrs: mustprogress uwtable
define linkonce_odr noundef zeroext i16 @_ZNK22arrow_vendored_private11flatbuffers5Table22GetOptionalFieldOffsetEt(ptr noundef nonnull align 1 dereferenceable(1) %0, i16 noundef zeroext %1) #1 comdat align 2 {
  %3 = alloca ptr, align 8
  %4 = alloca i16, align 2
  %5 = alloca ptr, align 8
  %6 = alloca i16, align 2
  store ptr %0, ptr %3, align 8, !tbaa !399
  store i16 %1, ptr %4, align 2, !tbaa !401
  %7 = load ptr, ptr %3, align 8
  call void @llvm.lifetime.start.p0(i64 8, ptr %5) #21
  %8 = call noundef ptr @_ZNK22arrow_vendored_private11flatbuffers5Table9GetVTableEv(ptr noundef nonnull align 1 dereferenceable(1) %7)
  store ptr %8, ptr %5, align 8, !tbaa !45
  call void @llvm.lifetime.start.p0(i64 2, ptr %6) #21
  %9 = load ptr, ptr %5, align 8, !tbaa !45
  %10 = call noundef zeroext i16 @_ZN22arrow_vendored_private11flatbuffers10ReadScalarItEET_PKv(ptr noundef %9)
  store i16 %10, ptr %6, align 2, !tbaa !401
  %11 = load i16, ptr %4, align 2, !tbaa !401
  %12 = zext i16 %11 to i32
  %13 = load i16, ptr %6, align 2, !tbaa !401
  %14 = zext i16 %13 to i32
  %15 = icmp slt i32 %12, %14
  br i1 %15, label %16, label %24

16:                                               ; preds = %2
  %17 = load ptr, ptr %5, align 8, !tbaa !45
  %18 = load i16, ptr %4, align 2, !tbaa !401
  %19 = zext i16 %18 to i32
  %20 = sext i32 %19 to i64
  %21 = getelementptr inbounds i8, ptr %17, i64 %20
  %22 = call noundef zeroext i16 @_ZN22arrow_vendored_private11flatbuffers10ReadScalarItEET_PKv(ptr noundef %21)
  %23 = zext i16 %22 to i32
  br label %25

24:                                               ; preds = %2
  br label %25

25:                                               ; preds = %24, %16
  %26 = phi i32 [ %23, %16 ], [ 0, %24 ]
  %27 = trunc i32 %26 to i16
  call void @llvm.lifetime.end.p0(i64 2, ptr %6) #21
  call void @llvm.lifetime.end.p0(i64 8, ptr %5) #21
  ret i16 %27
}

; Function Attrs: mustprogress uwtable
define linkonce_odr noundef ptr @_ZN22arrow_vendored_private11flatbuffers5Table10GetPointerIPKN3org6apache5arrow7flatbuf3IntEjEET_t(ptr noundef nonnull align 1 dereferenceable(1) %0, i16 noundef zeroext %1) #1 comdat align 2 {
  %3 = alloca ptr, align 8
  %4 = alloca i16, align 2
  %5 = alloca i16, align 2
  %6 = alloca ptr, align 8
  store ptr %0, ptr %3, align 8, !tbaa !399
  store i16 %1, ptr %4, align 2, !tbaa !401
  %7 = load ptr, ptr %3, align 8
  call void @llvm.lifetime.start.p0(i64 2, ptr %5) #21
  %8 = load i16, ptr %4, align 2, !tbaa !401
  %9 = call noundef zeroext i16 @_ZNK22arrow_vendored_private11flatbuffers5Table22GetOptionalFieldOffsetEt(ptr noundef nonnull align 1 dereferenceable(1) %7, i16 noundef zeroext %8)
  store i16 %9, ptr %5, align 2, !tbaa !401
  call void @llvm.lifetime.start.p0(i64 8, ptr %6) #21
  %10 = getelementptr inbounds nuw %"class.arrow_vendored_private::flatbuffers::Table", ptr %7, i32 0, i32 0
  %11 = getelementptr inbounds [1 x i8], ptr %10, i64 0, i64 0
  %12 = load i16, ptr %5, align 2, !tbaa !401
  %13 = zext i16 %12 to i32
  %14 = sext i32 %13 to i64
  %15 = getelementptr inbounds i8, ptr %11, i64 %14
  store ptr %15, ptr %6, align 8, !tbaa !45
  %16 = load i16, ptr %5, align 2, !tbaa !401
  %17 = icmp ne i16 %16, 0
  br i1 %17, label %18, label %24

18:                                               ; preds = %2
  %19 = load ptr, ptr %6, align 8, !tbaa !45
  %20 = load ptr, ptr %6, align 8, !tbaa !45
  %21 = call noundef i32 @_ZN22arrow_vendored_private11flatbuffers10ReadScalarIjEET_PKv(ptr noundef %20)
  %22 = zext i32 %21 to i64
  %23 = getelementptr inbounds nuw i8, ptr %19, i64 %22
  br label %25

24:                                               ; preds = %2
  br label %25

25:                                               ; preds = %24, %18
  %26 = phi ptr [ %23, %18 ], [ null, %24 ]
  call void @llvm.lifetime.end.p0(i64 8, ptr %6) #21
  call void @llvm.lifetime.end.p0(i64 2, ptr %5) #21
  ret ptr %26
}

; Function Attrs: mustprogress uwtable
define linkonce_odr noundef ptr @_ZNK22arrow_vendored_private11flatbuffers5Table10GetPointerIPKN3org6apache5arrow7flatbuf3IntEjEET_t(ptr noundef nonnull align 1 dereferenceable(1) %0, i16 noundef zeroext %1) #1 comdat align 2 {
  %3 = alloca ptr, align 8
  %4 = alloca i16, align 2
  store ptr %0, ptr %3, align 8, !tbaa !399
  store i16 %1, ptr %4, align 2, !tbaa !401
  %5 = load ptr, ptr %3, align 8
  %6 = load i16, ptr %4, align 2, !tbaa !401
  %7 = call noundef ptr @_ZN22arrow_vendored_private11flatbuffers5Table10GetPointerIPKN3org6apache5arrow7flatbuf3IntEjEET_t(ptr noundef nonnull align 1 dereferenceable(1) %5, i16 noundef zeroext %6)
  ret ptr %7
}

; Function Attrs: mustprogress uwtable
define linkonce_odr noundef ptr @_ZNK3org6apache5arrow7flatbuf20SparseTensorIndexCOO11indicesTypeEv(ptr noundef nonnull align 1 dereferenceable(1) %0) #1 comdat align 2 {
  %2 = alloca ptr, align 8
  store ptr %0, ptr %2, align 8, !tbaa !369
  %3 = load ptr, ptr %2, align 8
  %4 = call noundef ptr @_ZNK22arrow_vendored_private11flatbuffers5Table10GetPointerIPKN3org6apache5arrow7flatbuf3IntEjEET_t(ptr noundef nonnull align 1 dereferenceable(1) %3, i16 noundef zeroext 4)
  ret ptr %4
}

; Function Attrs: mustprogress uwtable
define void @_ZN5arrow3ipc8internal25GetSparseCOOIndexMetadataEPKN3org6apache5arrow7flatbuf20SparseTensorIndexCOOEPSt10shared_ptrINS_8DataTypeEE(ptr dead_on_unwind noalias writable sret(%"class.arrow::Status") align 8 %0, ptr noundef %1, ptr noundef %2) #1 {
  %4 = alloca ptr, align 8
  %5 = alloca ptr, align 8
  %6 = alloca ptr, align 8
  store ptr %0, ptr %4, align 8
  store ptr %1, ptr %5, align 8, !tbaa !369
  store ptr %2, ptr %6, align 8, !tbaa !21
  %7 = load ptr, ptr %5, align 8, !tbaa !369
  %8 = call noundef ptr @_ZNK3org6apache5arrow7flatbuf20SparseTensorIndexCOO11indicesTypeEv(ptr noundef nonnull align 1 dereferenceable(1) %7)
  %9 = load ptr, ptr %6, align 8, !tbaa !21
  call void @_ZN5arrow3ipc8internal12_GLOBAL__N_117IntFromFlatbufferEPKN3org6apache5arrow7flatbuf3IntEPSt10shared_ptrINS_8DataTypeEE(ptr dead_on_unwind writable sret(%"class.arrow::Status") align 8 %0, ptr noundef %8, ptr noundef %9)
  ret void
}