; Function Attrs: mustprogress uwtable
define void @_ZN5arrow3ipc8internal25GetSparseCOOIndexMetadataEPKN3org6apache5arrow7flatbuf20SparseTensorIndexCOOEPSt10shared_ptrINS_8DataTypeEE(ptr dead_on_unwind noalias writable sret(%"class.arrow::Status") align 8 %0, ptr noundef readonly captures(none) %1, ptr noundef captures(none) %2) local_unnamed_addr #1 {
  %4 = load i32, ptr %1, align 4, !tbaa !13
  %5 = sext i32 %4 to i64
  %6 = sub nsw i64 0, %5
  %7 = getelementptr inbounds i8, ptr %1, i64 %6
  %8 = load i16, ptr %7, align 2, !tbaa !30
  %9 = icmp ugt i16 %8, 4
  br i1 %9, label %_ZNK22arrow_vendored_private11flatbuffers5Table22GetOptionalFieldOffsetEt.exit.i.i.i, label %_ZNK3org6apache5arrow7flatbuf20SparseTensorIndexCOO11indicesTypeEv.exit

_ZNK22arrow_vendored_private11flatbuffers5Table22GetOptionalFieldOffsetEt.exit.i.i.i: ; preds = %3
  %10 = getelementptr inbounds nuw i8, ptr %7, i64 4
  %11 = load i16, ptr %10, align 2, !tbaa !30
  %.not.i.i.i = icmp eq i16 %11, 0
  br i1 %.not.i.i.i, label %_ZNK3org6apache5arrow7flatbuf20SparseTensorIndexCOO11indicesTypeEv.exit, label %12

12:                                               ; preds = %_ZNK22arrow_vendored_private11flatbuffers5Table22GetOptionalFieldOffsetEt.exit.i.i.i
  %13 = zext i16 %11 to i64
  %14 = getelementptr inbounds nuw i8, ptr %1, i64 %13
  %15 = load i32, ptr %14, align 4, !tbaa !13
  %16 = zext i32 %15 to i64
  %17 = getelementptr inbounds nuw i8, ptr %14, i64 %16
  br label %_ZNK3org6apache5arrow7flatbuf20SparseTensorIndexCOO11indicesTypeEv.exit

_ZNK3org6apache5arrow7flatbuf20SparseTensorIndexCOO11indicesTypeEv.exit: ; preds = %3, %_ZNK22arrow_vendored_private11flatbuffers5Table22GetOptionalFieldOffsetEt.exit.i.i.i, %12
  %18 = phi ptr [ %17, %12 ], [ null, %_ZNK22arrow_vendored_private11flatbuffers5Table22GetOptionalFieldOffsetEt.exit.i.i.i ], [ null, %3 ]
  tail call fastcc void @_ZN5arrow3ipc8internal12_GLOBAL__N_117IntFromFlatbufferEPKN3org6apache5arrow7flatbuf3IntEPSt10shared_ptrINS_8DataTypeEE(ptr dead_on_unwind noalias writable align 8 %0, ptr noundef %18, ptr noundef %2)
  ret void
}